target datalayout = "e-m:e-p270:32:32-p271:32:32-p272:64:64-i64:64-i128:128-f80:128-n8:16:32:64-S128"
target triple = "x86_64-pc-linux-gnu"

%struct.lv_ll_t = type { i32, ptr, ptr }
%struct._lv_group_t = type { %struct.lv_ll_t, ptr, ptr, ptr, ptr, i8 }

; Function Attrs: nounwind uwtable
define void @lv_group_focus_prev(ptr noundef %0) #0 {
  %2 = alloca ptr, align 8
  %3 = alloca i8, align 1
  store ptr %0, ptr %2, align 8, !tbaa !3
  br label %4

4:                                                ; preds = %1
  %5 = load ptr, ptr %2, align 8, !tbaa !3
  %6 = icmp ne ptr %5, null
  br i1 %6, label %11, label %7

7:                                                ; preds = %4
  br label %8

8:                                                ; preds = %7
  br label %9

9:                                                ; preds = %8
  br label %10

10:                                               ; preds = %9, %10
  br label %10

11:                                               ; preds = %4
  br label %12

12:                                               ; preds = %11
  call void @llvm.lifetime.start.p0(i64 1, ptr %3) #3
  %13 = load ptr, ptr %2, align 8, !tbaa !3
  %14 = call zeroext i1 @focus_next_core(ptr noundef %13, ptr noundef @lv_ll_get_tail, ptr noundef @lv_ll_get_prev)
  %15 = zext i1 %14 to i8
  store i8 %15, ptr %3, align 1, !tbaa !44
  %16 = load ptr, ptr %2, align 8, !tbaa !3
  %17 = getelementptr inbounds nuw %struct._lv_group_t, ptr %16, i32 0, i32 3
  %18 = load ptr, ptr %17, align 8, !tbaa !12
  %19 = icmp ne ptr %18, null
  br i1 %19, label %20, label %29

20:                                               ; preds = %12
  %21 = load i8, ptr %3, align 1, !tbaa !44, !range !45, !noundef !46
  %22 = trunc i8 %21 to i1
  br i1 %22, label %28, label %23

23:                                               ; preds = %20
  %24 = load ptr, ptr %2, align 8, !tbaa !3
  %25 = getelementptr inbounds nuw %struct._lv_group_t, ptr %24, i32 0, i32 3
  %26 = load ptr, ptr %25, align 8, !tbaa !12
  %27 = load ptr, ptr %2, align 8, !tbaa !3
  call void %26(ptr noundef %27, i1 noundef zeroext false)
  br label %28

28:                                               ; preds = %23, %20
  br label %29

29:                                               ; preds = %28, %12
  call void @llvm.lifetime.end.p0(i64 1, ptr %3) #3
  ret void
}